; Function Attrs: mustprogress nofree norecurse nosync nounwind willreturn memory(read, inaccessiblemem: none) uwtable
define float @Abc_SclFindWireLoad(ptr noundef readonly %0, i32 noundef %1) local_unnamed_addr #2 {
  %3 = icmp eq ptr %0, null
  br i1 %3, label %12, label %4

4:                                                ; preds = %2
  %5 = getelementptr i8, ptr %0, i64 4
  %.val5 = load i32, ptr %5, align 4, !tbaa !18
  %6 = add nsw i32 %.val5, -1
  %7 = tail call range(i32 -2147483648, 2147483647) i32 @llvm.smin.i32(i32 %1, i32 range(i32 -2147483648, 2147483647) %6)
  %8 = getelementptr i8, ptr %0, i64 8
  %.val = load ptr, ptr %8, align 8, !tbaa !17
  %9 = sext i32 %7 to i64
  %10 = getelementptr inbounds float, ptr %.val, i64 %9
  %11 = load float, ptr %10, align 4, !tbaa !23
  br label %12

12:                                               ; preds = %2, %4
  %.0 = phi float [ %11, %4 ], [ 0.000000e+00, %2 ]
  ret float %.0
}